target datalayout = "e-m:e-p270:32:32-p271:32:32-p272:64:64-i64:64-i128:128-f80:128-n8:16:32:64-S128"
target triple = "x86_64-pc-linux-gnu"

%struct.Aig_Obj_t_ = type { %union.anon, ptr, ptr, i64, i32, i32, %union.anon.0 }
%union.anon = type { ptr }
%union.anon.0 = type { ptr }
%struct.Fra_Sml_t_ = type { ptr, i32, i32, i32, i32, i32, i32, i32, i32, [0 x i32] }

; Function Attrs: inlinehint nounwind uwtable
define internal ptr @Fra_ObjSim(ptr noundef %0, i32 noundef %1) #2 {
  %3 = alloca ptr, align 8
  %4 = alloca i32, align 4
  store ptr %0, ptr %3, align 8, !tbaa !3
  store i32 %1, ptr %4, align 4, !tbaa !18
  %5 = load ptr, ptr %3, align 8, !tbaa !3
  %6 = getelementptr inbounds nuw %struct.Fra_Sml_t_, ptr %5, i32 0, i32 9
  %7 = getelementptr inbounds [0 x i32], ptr %6, i64 0, i64 0
  %8 = load ptr, ptr %3, align 8, !tbaa !3
  %9 = getelementptr inbounds nuw %struct.Fra_Sml_t_, ptr %8, i32 0, i32 4
  %10 = load i32, ptr %9, align 4, !tbaa !19
  %11 = load i32, ptr %4, align 4, !tbaa !18
  %12 = mul nsw i32 %10, %11
  %13 = sext i32 %12 to i64
  %14 = getelementptr inbounds i32, ptr %7, i64 %13
  ret ptr %14
}

; Function Attrs: nounwind uwtable
define i32 @Fra_OneHotNodesAreClause(ptr noundef %0, ptr noundef %1, ptr noundef %2, i32 noundef %3, i32 noundef %4) #0 {
  %6 = alloca i32, align 4
  %7 = alloca ptr, align 8
  %8 = alloca ptr, align 8
  %9 = alloca ptr, align 8
  %10 = alloca i32, align 4
  %11 = alloca i32, align 4
  %12 = alloca ptr, align 8
  %13 = alloca ptr, align 8
  %14 = alloca i32, align 4
  %15 = alloca i32, align 4
  store ptr %0, ptr %7, align 8, !tbaa !3
  store ptr %1, ptr %8, align 8, !tbaa !8
  store ptr %2, ptr %9, align 8, !tbaa !8
  store i32 %3, ptr %10, align 4, !tbaa !18
  store i32 %4, ptr %11, align 4, !tbaa !18
  call void @llvm.lifetime.start.p0(i64 8, ptr %12) #10
  call void @llvm.lifetime.start.p0(i64 8, ptr %13) #10
  call void @llvm.lifetime.start.p0(i64 4, ptr %14) #10
  %16 = load ptr, ptr %7, align 8, !tbaa !3
  %17 = load ptr, ptr %8, align 8, !tbaa !8
  %18 = getelementptr inbounds nuw %struct.Aig_Obj_t_, ptr %17, i32 0, i32 5
  %19 = load i32, ptr %18, align 4, !tbaa !10
  %20 = call ptr @Fra_ObjSim(ptr noundef %16, i32 noundef %19)
  store ptr %20, ptr %12, align 8, !tbaa !13
  %21 = load ptr, ptr %7, align 8, !tbaa !3
  %22 = load ptr, ptr %9, align 8, !tbaa !8
  %23 = getelementptr inbounds nuw %struct.Aig_Obj_t_, ptr %22, i32 0, i32 5
  %24 = load i32, ptr %23, align 4, !tbaa !10
  %25 = call ptr @Fra_ObjSim(ptr noundef %21, i32 noundef %24)
  store ptr %25, ptr %13, align 8, !tbaa !13
  %26 = load i32, ptr %10, align 4, !tbaa !18
  %27 = icmp ne i32 %26, 0
  br i1 %27, label %28, label %60

28:                                               ; preds = %5
  %29 = load i32, ptr %11, align 4, !tbaa !18
  %30 = icmp ne i32 %29, 0
  br i1 %30, label %31, label %60

31:                                               ; preds = %28
  %32 = load ptr, ptr %7, align 8, !tbaa !3
  %33 = getelementptr inbounds nuw %struct.Fra_Sml_t_, ptr %32, i32 0, i32 5
  %34 = load i32, ptr %33, align 8, !tbaa !15
  store i32 %34, ptr %14, align 4, !tbaa !18
  br label %35

35:                                               ; preds = %56, %31
  %36 = load i32, ptr %14, align 4, !tbaa !18
  %37 = load ptr, ptr %7, align 8, !tbaa !3
  %38 = getelementptr inbounds nuw %struct.Fra_Sml_t_, ptr %37, i32 0, i32 4
  %39 = load i32, ptr %38, align 4, !tbaa !19
  %40 = icmp slt i32 %36, %39
  br i1 %40, label %41, label %59

41:                                               ; preds = %35
  %42 = load ptr, ptr %12, align 8, !tbaa !13
  %43 = load i32, ptr %14, align 4, !tbaa !18
  %44 = sext i32 %43 to i64
  %45 = getelementptr inbounds i32, ptr %42, i64 %44
  %46 = load i32, ptr %45, align 4, !tbaa !18
  %47 = load ptr, ptr %13, align 8, !tbaa !13
  %48 = load i32, ptr %14, align 4, !tbaa !18
  %49 = sext i32 %48 to i64
  %50 = getelementptr inbounds i32, ptr %47, i64 %49
  %51 = load i32, ptr %50, align 4, !tbaa !18
  %52 = and i32 %46, %51
  %53 = icmp ne i32 %52, 0
  br i1 %53, label %54, label %55

54:                                               ; preds = %41
  store i32 0, ptr %6, align 4
  store i32 1, ptr %15, align 4
  br label %130

55:                                               ; preds = %41
  br label %56

56:                                               ; preds = %55
  %57 = load i32, ptr %14, align 4, !tbaa !18
  %58 = add nsw i32 %57, 1
  store i32 %58, ptr %14, align 4, !tbaa !18
  br label %35, !llvm.loop !23

59:                                               ; preds = %35
  br label %129

60:                                               ; preds = %28, %5
  %61 = load i32, ptr %10, align 4, !tbaa !18
  %62 = icmp ne i32 %61, 0
  br i1 %62, label %63, label %93

63:                                               ; preds = %60
  %64 = load ptr, ptr %7, align 8, !tbaa !3
  %65 = getelementptr inbounds nuw %struct.Fra_Sml_t_, ptr %64, i32 0, i32 5
  %66 = load i32, ptr %65, align 8, !tbaa !15
  store i32 %66, ptr %14, align 4, !tbaa !18
  br label %67

67:                                               ; preds = %89, %63
  %68 = load i32, ptr %14, align 4, !tbaa !18
  %69 = load ptr, ptr %7, align 8, !tbaa !3
  %70 = getelementptr inbounds nuw %struct.Fra_Sml_t_, ptr %69, i32 0, i32 4
  %71 = load i32, ptr %70, align 4, !tbaa !19
  %72 = icmp slt i32 %68, %71
  br i1 %72, label %73, label %92

73:                                               ; preds = %67
  %74 = load ptr, ptr %12, align 8, !tbaa !13
  %75 = load i32, ptr %14, align 4, !tbaa !18
  %76 = sext i32 %75 to i64
  %77 = getelementptr inbounds i32, ptr %74, i64 %76
  %78 = load i32, ptr %77, align 4, !tbaa !18
  %79 = load ptr, ptr %13, align 8, !tbaa !13
  %80 = load i32, ptr %14, align 4, !tbaa !18
  %81 = sext i32 %80 to i64
  %82 = getelementptr inbounds i32, ptr %79, i64 %81
  %83 = load i32, ptr %82, align 4, !tbaa !18
  %84 = xor i32 %83, -1
  %85 = and i32 %78, %84
  %86 = icmp ne i32 %85, 0
  br i1 %86, label %87, label %88

87:                                               ; preds = %73
  store i32 0, ptr %6, align 4
  store i32 1, ptr %15, align 4
  br label %130

88:                                               ; preds = %73
  br label %89

89:                                               ; preds = %88
  %90 = load i32, ptr %14, align 4, !tbaa !18
  %91 = add nsw i32 %90, 1
  store i32 %91, ptr %14, align 4, !tbaa !18
  br label %67, !llvm.loop !24

92:                                               ; preds = %67
  br label %128

93:                                               ; preds = %60
  %94 = load i32, ptr %11, align 4, !tbaa !18
  %95 = icmp ne i32 %94, 0
  br i1 %95, label %96, label %126

96:                                               ; preds = %93
  %97 = load ptr, ptr %7, align 8, !tbaa !3
  %98 = getelementptr inbounds nuw %struct.Fra_Sml_t_, ptr %97, i32 0, i32 5
  %99 = load i32, ptr %98, align 8, !tbaa !15
  store i32 %99, ptr %14, align 4, !tbaa !18
  br label %100

100:                                              ; preds = %122, %96
  %101 = load i32, ptr %14, align 4, !tbaa !18
  %102 = load ptr, ptr %7, align 8, !tbaa !3
  %103 = getelementptr inbounds nuw %struct.Fra_Sml_t_, ptr %102, i32 0, i32 4
  %104 = load i32, ptr %103, align 4, !tbaa !19
  %105 = icmp slt i32 %101, %104
  br i1 %105, label %106, label %125

106:                                              ; preds = %100
  %107 = load ptr, ptr %12, align 8, !tbaa !13
  %108 = load i32, ptr %14, align 4, !tbaa !18
  %109 = sext i32 %108 to i64
  %110 = getelementptr inbounds i32, ptr %107, i64 %109
  %111 = load i32, ptr %110, align 4, !tbaa !18
  %112 = xor i32 %111, -1
  %113 = load ptr, ptr %13, align 8, !tbaa !13
  %114 = load i32, ptr %14, align 4, !tbaa !18
  %115 = sext i32 %114 to i64
  %116 = getelementptr inbounds i32, ptr %113, i64 %115
  %117 = load i32, ptr %116, align 4, !tbaa !18
  %118 = and i32 %112, %117
  %119 = icmp ne i32 %118, 0
  br i1 %119, label %120, label %121

120:                                              ; preds = %106
  store i32 0, ptr %6, align 4
  store i32 1, ptr %15, align 4
  br label %130

121:                                              ; preds = %106
  br label %122

122:                                              ; preds = %121
  %123 = load i32, ptr %14, align 4, !tbaa !18
  %124 = add nsw i32 %123, 1
  store i32 %124, ptr %14, align 4, !tbaa !18
  br label %100, !llvm.loop !25

125:                                              ; preds = %100
  br label %127

126:                                              ; preds = %93
  br label %127

127:                                              ; preds = %126, %125
  br label %128

128:                                              ; preds = %127, %92
  br label %129

129:                                              ; preds = %128, %59
  store i32 1, ptr %6, align 4
  store i32 1, ptr %15, align 4
  br label %130

130:                                              ; preds = %129, %120, %87, %54
  call void @llvm.lifetime.end.p0(i64 4, ptr %14) #10
  call void @llvm.lifetime.end.p0(i64 8, ptr %13) #10
  call void @llvm.lifetime.end.p0(i64 8, ptr %12) #10
  %131 = load i32, ptr %6, align 4
  ret i32 %131
}