; Function Attrs: nofree norecurse nosync nounwind memory(argmem: read) uwtable
define range(i32 0, 2) i32 @Fra_OneHotNodesAreClause(ptr noundef readonly captures(none) %0, ptr noundef readonly captures(none) %1, ptr noundef readonly captures(none) %2, i32 noundef %3, i32 noundef %4) local_unnamed_addr #0 {
  %6 = getelementptr inbounds nuw i8, ptr %1, i64 36
  %7 = load i32, ptr %6, align 4, !tbaa !3
  %8 = getelementptr inbounds nuw i8, ptr %0, i64 40
  %9 = getelementptr inbounds nuw i8, ptr %0, i64 20
  %10 = load i32, ptr %9, align 4, !tbaa !10
  %11 = mul nsw i32 %10, %7
  %12 = sext i32 %11 to i64
  %13 = getelementptr inbounds i32, ptr %8, i64 %12
  %14 = getelementptr inbounds nuw i8, ptr %2, i64 36
  %15 = load i32, ptr %14, align 4, !tbaa !3
  %16 = mul nsw i32 %15, %10
  %17 = sext i32 %16 to i64
  %18 = getelementptr inbounds i32, ptr %8, i64 %17
  %19 = icmp ne i32 %3, 0
  %20 = icmp ne i32 %4, 0
  %or.cond = and i1 %19, %20
  br i1 %or.cond, label %21, label %32

21:                                               ; preds = %5
  %22 = getelementptr inbounds nuw i8, ptr %0, i64 24
  %23 = load i32, ptr %22, align 8, !tbaa !13
  %24 = icmp slt i32 %23, %10
  br i1 %24, label %.lr.ph49.preheader, label %.loopexit

.lr.ph49.preheader:                               ; preds = %21
  %25 = sext i32 %23 to i64
  br label %.lr.ph49

26:                                               ; preds = %.lr.ph49
  %indvars.iv.next64 = add nsw i64 %indvars.iv63, 1
  %lftr.wideiv66 = trunc i64 %indvars.iv.next64 to i32
  %exitcond67.not = icmp eq i32 %10, %lftr.wideiv66
  br i1 %exitcond67.not, label %.loopexit, label %.lr.ph49, !llvm.loop !18

.lr.ph49:                                         ; preds = %.lr.ph49.preheader, %26
  %indvars.iv63 = phi i64 [ %25, %.lr.ph49.preheader ], [ %indvars.iv.next64, %26 ]
  %27 = getelementptr inbounds i32, ptr %13, i64 %indvars.iv63
  %28 = load i32, ptr %27, align 4, !tbaa !16
  %29 = getelementptr inbounds i32, ptr %18, i64 %indvars.iv63
  %30 = load i32, ptr %29, align 4, !tbaa !16
  %31 = and i32 %30, %28
  %.not35 = icmp eq i32 %31, 0
  br i1 %.not35, label %26, label %.loopexit

32:                                               ; preds = %5
  br i1 %19, label %33, label %45

33:                                               ; preds = %32
  %34 = getelementptr inbounds nuw i8, ptr %0, i64 24
  %35 = load i32, ptr %34, align 8, !tbaa !13
  %36 = icmp slt i32 %35, %10
  br i1 %36, label %.lr.ph44.preheader, label %.loopexit

.lr.ph44.preheader:                               ; preds = %33
  %37 = sext i32 %35 to i64
  br label %.lr.ph44

38:                                               ; preds = %.lr.ph44
  %indvars.iv.next59 = add nsw i64 %indvars.iv58, 1
  %lftr.wideiv61 = trunc i64 %indvars.iv.next59 to i32
  %exitcond62.not = icmp eq i32 %10, %lftr.wideiv61
  br i1 %exitcond62.not, label %.loopexit, label %.lr.ph44, !llvm.loop !19

.lr.ph44:                                         ; preds = %.lr.ph44.preheader, %38
  %indvars.iv58 = phi i64 [ %37, %.lr.ph44.preheader ], [ %indvars.iv.next59, %38 ]
  %39 = getelementptr inbounds i32, ptr %13, i64 %indvars.iv58
  %40 = load i32, ptr %39, align 4, !tbaa !16
  %41 = getelementptr inbounds i32, ptr %18, i64 %indvars.iv58
  %42 = load i32, ptr %41, align 4, !tbaa !16
  %43 = xor i32 %42, -1
  %44 = and i32 %40, %43
  %.not34 = icmp eq i32 %44, 0
  br i1 %.not34, label %38, label %.loopexit

45:                                               ; preds = %32
  br i1 %20, label %46, label %.loopexit

46:                                               ; preds = %45
  %47 = getelementptr inbounds nuw i8, ptr %0, i64 24
  %48 = load i32, ptr %47, align 8, !tbaa !13
  %49 = icmp slt i32 %48, %10
  br i1 %49, label %.lr.ph.preheader, label %.loopexit

.lr.ph.preheader:                                 ; preds = %46
  %50 = sext i32 %48 to i64
  br label %.lr.ph

51:                                               ; preds = %.lr.ph
  %indvars.iv.next = add nsw i64 %indvars.iv, 1
  %lftr.wideiv = trunc i64 %indvars.iv.next to i32
  %exitcond.not = icmp eq i32 %10, %lftr.wideiv
  br i1 %exitcond.not, label %.loopexit, label %.lr.ph, !llvm.loop !20

.lr.ph:                                           ; preds = %.lr.ph.preheader, %51
  %indvars.iv = phi i64 [ %50, %.lr.ph.preheader ], [ %indvars.iv.next, %51 ]
  %52 = getelementptr inbounds i32, ptr %13, i64 %indvars.iv
  %53 = load i32, ptr %52, align 4, !tbaa !16
  %54 = xor i32 %53, -1
  %55 = getelementptr inbounds i32, ptr %18, i64 %indvars.iv
  %56 = load i32, ptr %55, align 4, !tbaa !16
  %57 = and i32 %56, %54
  %.not = icmp eq i32 %57, 0
  br i1 %.not, label %51, label %.loopexit

.loopexit:                                        ; preds = %.lr.ph, %51, %.lr.ph44, %38, %.lr.ph49, %26, %46, %33, %21, %45
  %.033 = phi i32 [ 1, %45 ], [ 1, %21 ], [ 1, %33 ], [ 1, %46 ], [ 0, %.lr.ph49 ], [ 1, %26 ], [ 0, %.lr.ph44 ], [ 1, %38 ], [ 0, %.lr.ph ], [ 1, %51 ]
  ret i32 %.033
}